(dp0
S'd370dc6d-d969-876f-bf24-dccf34b84a91'
p1
(lp2
Vreplaced
p3
asS'dcc9cfdd-6429-c3e0-ef2b-588687ed6595'
p4
(lp5
Vwooden
p6
asS'131ee83d-f225-d794-2d35-a16d2ac6464c'
p7
(lp8
g6
asS'3902b797-c0f1-bac1-b60b-ae92cd65167c'
p9
(lp10
Vnear_field
p11
asS'9286e6d1-e44a-8da0-ca4a-69a7d4170648'
p12
(lp13
g3
asS'80863ce3-4ca1-a0f2-e6c2-4cabc1191de2'
p14
(lp15
g3
asS'27aacf7f-4692-e0dd-f5ee-5630278a0b42'
p16
(lp17
Vmust_pass
p18
asS'cbf46f8c-cf9e-8347-0d18-9416cc2f7e69'
p19
(lp20
g3
asS'57b523f7-cdf1-4819-b34c-dddfcea9dcbe'
p21
(lp22
Vspiders
p23
asS'f5e01c54-96a5-8477-a182-5d680f8d349f'
p24
(lp25
g23
asS'1e211d5d-f994-7ed3-4fb0-ae6701263553'
p26
(lp27
g23
asS'75fea554-2985-a2f0-b825-a0e7ce7d9c86'
p28
(lp29
Vtemperature_controlled
p30
asS'8c951b3b-042d-062d-59aa-8f7e86e5979e'
p31
(lp32
g23
asS'5b2397ed-79aa-3252-8e31-740a53528e28'
p33
(lp34
g18
asS'ed4bebb9-2225-24f1-494c-f20a63403526'
p35
(lp36
g3
asS'61329417-1512-b6b7-c945-d1cb383bbb3e'
p37
(lp38
Vwifi_enabled
p39
asS'5942abee-c03c-034e-de97-3dd03c6a2844'
p40
(lp41
g3
asS'f3716725-552d-b9b5-59ad-de4ec64b1751'
p42
(lp43
g11
asS'343a0c91-d3b9-80fa-2330-cfde495decf1'
p44
(lp45
g6
asS'd29973c3-95ec-691d-defd-6a6ba713c72a'
p46
(lp47
g3
asS'3ca5eb2f-0eed-a808-2354-12c35d397743'
p48
(lp49
g23
as.