(dp0
Vmust_pass
p1
cnumpy.core.multiarray
_reconstruct
p2
(cnumpy
ndarray
p3
(I0
tp4
S'b'
p5
tp6
Rp7
(I1
(I2
tp8
cnumpy
dtype
p9
(S'O8'
p10
I0
I1
tp11
Rp12
(I3
S'|'
p13
NNNI-1
I-1
I63
tp14
bI00
(lp15
S'27aacf7f-4692-e0dd-f5ee-5630278a0b42'
p16
aS'5b2397ed-79aa-3252-8e31-740a53528e28'
p17
atp18
bsVtemperature_controlled
p19
g2
(g3
(I0
tp20
g5
tp21
Rp22
(I1
(I1
tp23
g12
I00
(lp24
S'75fea554-2985-a2f0-b825-a0e7ce7d9c86'
p25
atp26
bsVwooden
p27
g2
(g3
(I0
tp28
g5
tp29
Rp30
(I1
(I3
tp31
g12
I00
(lp32
S'131ee83d-f225-d794-2d35-a16d2ac6464c'
p33
aS'343a0c91-d3b9-80fa-2330-cfde495decf1'
p34
aS'dcc9cfdd-6429-c3e0-ef2b-588687ed6595'
p35
atp36
bsVnear_field
p37
g2
(g3
(I0
tp38
g5
tp39
Rp40
(I1
(I2
tp41
g12
I00
(lp42
S'3902b797-c0f1-bac1-b60b-ae92cd65167c'
p43
aS'f3716725-552d-b9b5-59ad-de4ec64b1751'
p44
atp45
bsVwifi_enabled
p46
g2
(g3
(I0
tp47
g5
tp48
Rp49
(I1
(I1
tp50
g12
I00
(lp51
S'61329417-1512-b6b7-c945-d1cb383bbb3e'
p52
atp53
bsVreplaced
p54
g2
(g3
(I0
tp55
g5
tp56
Rp57
(I1
(I7
tp58
g12
I00
(lp59
S'5942abee-c03c-034e-de97-3dd03c6a2844'
p60
aS'80863ce3-4ca1-a0f2-e6c2-4cabc1191de2'
p61
aS'9286e6d1-e44a-8da0-ca4a-69a7d4170648'
p62
aS'cbf46f8c-cf9e-8347-0d18-9416cc2f7e69'
p63
aS'd29973c3-95ec-691d-defd-6a6ba713c72a'
p64
aS'd370dc6d-d969-876f-bf24-dccf34b84a91'
p65
aS'ed4bebb9-2225-24f1-494c-f20a63403526'
p66
atp67
bsVspiders
p68
g2
(g3
(I0
tp69
g5
tp70
Rp71
(I1
(I5
tp72
g12
I00
(lp73
S'1e211d5d-f994-7ed3-4fb0-ae6701263553'
p74
aS'3ca5eb2f-0eed-a808-2354-12c35d397743'
p75
aS'57b523f7-cdf1-4819-b34c-dddfcea9dcbe'
p76
aS'8c951b3b-042d-062d-59aa-8f7e86e5979e'
p77
aS'f5e01c54-96a5-8477-a182-5d680f8d349f'
p78
atp79
bs.